target datalayout = "e-m:e-p270:32:32-p271:32:32-p272:64:64-i64:64-i128:128-f80:128-n8:16:32:64-S128"
target triple = "x86_64-unknown-linux-gnu"

%"class.std::__cxx11::basic_string" = type { %"struct.std::__cxx11::basic_string<char>::_Alloc_hider", i64, %union.anon }
%"struct.std::__cxx11::basic_string<char>::_Alloc_hider" = type { ptr }
%union.anon = type { i64, [8 x i8] }

@__dso_handle = external hidden global i8
@_ZZN8facebook5velox6memory12_GLOBAL__N_119cacheFailureMessageB5cxx11EvE7messageB5cxx11 = internal thread_local global %"class.std::__cxx11::basic_string" zeroinitializer, align 8
@_ZGVZN8facebook5velox6memory12_GLOBAL__N_119cacheFailureMessageB5cxx11EvE7messageB5cxx11 = internal thread_local global i8 0, align 1

; Function Attrs: mustprogress nounwind uwtable
define internal noundef nonnull align 8 dereferenceable(32) ptr @_ZN8facebook5velox6memory12_GLOBAL__N_119cacheFailureMessageB5cxx11Ev() #5 {
entry:
  %0 = load i8, ptr @_ZGVZN8facebook5velox6memory12_GLOBAL__N_119cacheFailureMessageB5cxx11EvE7messageB5cxx11, align 1
  %guard.uninitialized = icmp eq i8 %0, 0
  br i1 %guard.uninitialized, label %init.check, label %init.end, !prof !4

init.check:                                       ; preds = %entry
  call void @_ZNSt7__cxx1112basic_stringIcSt11char_traitsIcESaIcEEC1Ev(ptr noundef nonnull align 8 dereferenceable(32) @_ZZN8facebook5velox6memory12_GLOBAL__N_119cacheFailureMessageB5cxx11EvE7messageB5cxx11) #3
  %1 = call i32 @__cxa_thread_atexit(ptr @_ZNSt7__cxx1112basic_stringIcSt11char_traitsIcESaIcEED1Ev, ptr @_ZZN8facebook5velox6memory12_GLOBAL__N_119cacheFailureMessageB5cxx11EvE7messageB5cxx11, ptr @__dso_handle) #3
  store i8 1, ptr @_ZGVZN8facebook5velox6memory12_GLOBAL__N_119cacheFailureMessageB5cxx11EvE7messageB5cxx11, align 1
  br label %init.end

init.end:                                         ; preds = %init.check, %entry
  %2 = call align 8 ptr @llvm.threadlocal.address.p0(ptr align 8 @_ZZN8facebook5velox6memory12_GLOBAL__N_119cacheFailureMessageB5cxx11EvE7messageB5cxx11)
  ret ptr %2
}

; Function Attrs: mustprogress uwtable
define void @_ZN8facebook5velox6memory30getAndClearCacheFailureMessageB5cxx11Ev(ptr noalias sret(%"class.std::__cxx11::basic_string") align 8 %agg.result) #4 personality ptr @__gxx_personality_v0 {
entry:
  %result.ptr = alloca ptr, align 8
  %nrvo = alloca i1, align 1
  %exn.slot = alloca ptr, align 8
  %ehselector.slot = alloca i32, align 4
  store ptr %agg.result, ptr %result.ptr, align 8
  store i1 false, ptr %nrvo, align 1
  %call = call noundef nonnull align 8 dereferenceable(32) ptr @_ZN8facebook5velox6memory12_GLOBAL__N_119cacheFailureMessageB5cxx11Ev()
  call void @_ZNSt7__cxx1112basic_stringIcSt11char_traitsIcESaIcEEC1EOS4_(ptr noundef nonnull align 8 dereferenceable(32) %agg.result, ptr noundef nonnull align 8 dereferenceable(32) %call) #3
  %call1 = invoke noundef nonnull align 8 dereferenceable(32) ptr @_ZN8facebook5velox6memory12_GLOBAL__N_119cacheFailureMessageB5cxx11Ev()
          to label %invoke.cont unwind label %lpad

invoke.cont:                                      ; preds = %entry
  call void @_ZNSt7__cxx1112basic_stringIcSt11char_traitsIcESaIcEE5clearEv(ptr noundef nonnull align 8 dereferenceable(32) %call1) #3
  store i1 true, ptr %nrvo, align 1
  %nrvo.val = load i1, ptr %nrvo, align 1
  br i1 %nrvo.val, label %nrvo.skipdtor, label %nrvo.unused

lpad:                                             ; preds = %entry
  %0 = landingpad { ptr, i32 }
          cleanup
  %1 = extractvalue { ptr, i32 } %0, 0
  store ptr %1, ptr %exn.slot, align 8
  %2 = extractvalue { ptr, i32 } %0, 1
  store i32 %2, ptr %ehselector.slot, align 4
  call void @_ZNSt7__cxx1112basic_stringIcSt11char_traitsIcESaIcEED1Ev(ptr noundef nonnull align 8 dereferenceable(32) %agg.result) #3
  br label %eh.resume

nrvo.unused:                                      ; preds = %invoke.cont
  call void @_ZNSt7__cxx1112basic_stringIcSt11char_traitsIcESaIcEED1Ev(ptr noundef nonnull align 8 dereferenceable(32) %agg.result) #3
  br label %nrvo.skipdtor

nrvo.skipdtor:                                    ; preds = %nrvo.unused, %invoke.cont
  ret void

eh.resume:                                        ; preds = %lpad
  %exn = load ptr, ptr %exn.slot, align 8
  %sel = load i32, ptr %ehselector.slot, align 4
  %lpad.val = insertvalue { ptr, i32 } poison, ptr %exn, 0
  %lpad.val2 = insertvalue { ptr, i32 } %lpad.val, i32 %sel, 1
  resume { ptr, i32 } %lpad.val2
}