; Function Attrs: mustprogress nounwind uwtable
define void @_ZN8facebook5velox6memory30getAndClearCacheFailureMessageB5cxx11Ev(ptr noalias sret(%"class.std::__cxx11::basic_string") align 8 %agg.result) local_unnamed_addr #3 personality ptr @__gxx_personality_v0 {
entry:
  %.b.i = load i1, ptr @_ZGVZN8facebook5velox6memory12_GLOBAL__N_119cacheFailureMessageB5cxx11EvE7messageB5cxx11, align 1
  br i1 %.b.i, label %_ZN8facebook5velox6memory12_GLOBAL__N_119cacheFailureMessageB5cxx11Ev.exit, label %init.check.i, !prof !4

init.check.i:                                     ; preds = %entry
  tail call void @_ZNSt7__cxx1112basic_stringIcSt11char_traitsIcESaIcEEC1Ev(ptr noundef nonnull align 8 dereferenceable(32) @_ZZN8facebook5velox6memory12_GLOBAL__N_119cacheFailureMessageB5cxx11EvE7messageB5cxx11) #13
  %0 = tail call i32 @__cxa_thread_atexit(ptr nonnull @_ZNSt7__cxx1112basic_stringIcSt11char_traitsIcESaIcEED1Ev, ptr nonnull @_ZZN8facebook5velox6memory12_GLOBAL__N_119cacheFailureMessageB5cxx11EvE7messageB5cxx11, ptr nonnull @__dso_handle) #13
  store i1 true, ptr @_ZGVZN8facebook5velox6memory12_GLOBAL__N_119cacheFailureMessageB5cxx11EvE7messageB5cxx11, align 1
  br label %_ZN8facebook5velox6memory12_GLOBAL__N_119cacheFailureMessageB5cxx11Ev.exit

_ZN8facebook5velox6memory12_GLOBAL__N_119cacheFailureMessageB5cxx11Ev.exit: ; preds = %entry, %init.check.i
  %1 = tail call noundef nonnull align 8 dereferenceable(32) ptr @llvm.threadlocal.address.p0(ptr align 8 @_ZZN8facebook5velox6memory12_GLOBAL__N_119cacheFailureMessageB5cxx11EvE7messageB5cxx11)
  tail call void @_ZNSt7__cxx1112basic_stringIcSt11char_traitsIcESaIcEEC1EOS4_(ptr noundef nonnull align 8 dereferenceable(32) %agg.result, ptr noundef nonnull align 8 dereferenceable(32) %1) #13
  %.b.i1 = load i1, ptr @_ZGVZN8facebook5velox6memory12_GLOBAL__N_119cacheFailureMessageB5cxx11EvE7messageB5cxx11, align 1
  br i1 %.b.i1, label %_ZN8facebook5velox6memory12_GLOBAL__N_119cacheFailureMessageB5cxx11Ev.exit3, label %init.check.i2, !prof !4

init.check.i2:                                    ; preds = %_ZN8facebook5velox6memory12_GLOBAL__N_119cacheFailureMessageB5cxx11Ev.exit
  tail call void @_ZNSt7__cxx1112basic_stringIcSt11char_traitsIcESaIcEEC1Ev(ptr noundef nonnull align 8 dereferenceable(32) @_ZZN8facebook5velox6memory12_GLOBAL__N_119cacheFailureMessageB5cxx11EvE7messageB5cxx11) #13
  %2 = tail call i32 @__cxa_thread_atexit(ptr nonnull @_ZNSt7__cxx1112basic_stringIcSt11char_traitsIcESaIcEED1Ev, ptr nonnull @_ZZN8facebook5velox6memory12_GLOBAL__N_119cacheFailureMessageB5cxx11EvE7messageB5cxx11, ptr nonnull @__dso_handle) #13
  store i1 true, ptr @_ZGVZN8facebook5velox6memory12_GLOBAL__N_119cacheFailureMessageB5cxx11EvE7messageB5cxx11, align 1
  br label %_ZN8facebook5velox6memory12_GLOBAL__N_119cacheFailureMessageB5cxx11Ev.exit3

_ZN8facebook5velox6memory12_GLOBAL__N_119cacheFailureMessageB5cxx11Ev.exit3: ; preds = %_ZN8facebook5velox6memory12_GLOBAL__N_119cacheFailureMessageB5cxx11Ev.exit, %init.check.i2
  tail call void @_ZNSt7__cxx1112basic_stringIcSt11char_traitsIcESaIcEE5clearEv(ptr noundef nonnull align 8 dereferenceable(32) %1) #13
  ret void
}